target datalayout = "e-m:e-p270:32:32-p271:32:32-p272:64:64-i64:64-i128:128-f80:128-n8:16:32:64-S128"
target triple = "x86_64-pc-linux-gnu"

%struct.Curl_easy = type { i32, i64, i64, ptr, %struct.Curl_llist_node, %struct.Curl_llist_node, i32, i32, %struct.Curl_message, %struct.easy_pollset, %struct.Names, ptr, ptr, ptr, ptr, %struct.SingleRequest, %struct.UserDefined, ptr, ptr, ptr, %struct.Progress, %struct.UrlState, ptr, %struct.PureInfo, %struct.curl_tlssessioninfo }
%struct.Curl_llist_node = type { ptr, ptr, ptr, ptr }
%struct.Curl_message = type { %struct.Curl_llist_node, %struct.CURLMsg }
%struct.CURLMsg = type { i32, ptr, %union.anon }
%union.anon = type { ptr }
%struct.easy_pollset = type { [5 x i32], i32, [5 x i8] }
%struct.Names = type { ptr, i32 }
%struct.SingleRequest = type <{ i64, i64, i64, i64, %struct.curltime, i32, i32, i32, i32, i64, i32, i32, i8, i8, [2 x i8], i32, ptr, ptr, %struct.bufq, i64, i64, ptr, ptr, %union.anon.0, ptr, i8, i32, [3 x i8] }>
%struct.curltime = type { i64, i32 }
%struct.bufq = type { ptr, ptr, ptr, ptr, i64, i64, i64, i32 }
%union.anon.0 = type { ptr }
%struct.UserDefined = type <{ ptr, ptr, ptr, ptr, ptr, ptr, i64, i64, i64, ptr, ptr, i64, ptr, ptr, ptr, ptr, ptr, ptr, ptr, ptr, ptr, ptr, ptr, ptr, ptr, ptr, ptr, ptr, ptr, ptr, ptr, ptr, ptr, ptr, ptr, i64, i64, i64, i64, i64, i64, i64, i64, i64, ptr, ptr, %struct.curl_mimepart, ptr, ptr, ptr, i64, %struct.ssl_config_data, %struct.ssl_config_data, ptr, i16, i8, i8, %struct.ssl_general_config, i32, i32, i32, [4 x i8], ptr, ptr, i64, i32, i8, i8, i8, i8, ptr, ptr, ptr, i32, [4 x i8], [74 x ptr], [8 x ptr], i32, i32, i32, [4 x i8], ptr, i32, [4 x i8], ptr, ptr, ptr, ptr, ptr, i32, i32, i32, i32, i32, i32, i32, i32, i64, ptr, ptr, i64, ptr, i64, ptr, ptr, ptr, ptr, i32, i16, i16, i16, i8, i8, i8, i8, i8, i8, i8, i8, i64, [6 x i8] }>
%struct.curl_mimepart = type { ptr, ptr, i32, i32, ptr, ptr, ptr, ptr, ptr, ptr, ptr, ptr, ptr, ptr, ptr, i64, %struct.mime_state, ptr, %struct.mime_encoder_state, i64 }
%struct.mime_state = type { i32, ptr, i64 }
%struct.mime_encoder_state = type { i64, i64, i64, [256 x i8] }
%struct.ssl_config_data = type { %struct.ssl_primary_config, i64, ptr, ptr, ptr, ptr, ptr, ptr, ptr, i16 }
%struct.ssl_primary_config = type { ptr, ptr, ptr, ptr, ptr, ptr, ptr, ptr, ptr, ptr, ptr, ptr, ptr, ptr, i8, i32, i8, i8 }
%struct.ssl_general_config = type { i32 }
%struct.Progress = type { i64, %struct.pgrs_dir, %struct.pgrs_dir, i64, i64, i32, i32, i64, i64, i64, i64, i64, i64, i64, i64, i64, %struct.curltime, %struct.curltime, %struct.curltime, %struct.curltime, %struct.curltime, [6 x i64], [6 x %struct.curltime], i32, i8 }
%struct.pgrs_dir = type { i64, i64, i64, %struct.pgrs_measure }
%struct.pgrs_measure = type { %struct.curltime, i64 }
%struct.UrlState = type { %struct.curltime, i64, i64, %struct.dynbuf, ptr, i64, ptr, i32, i32, i32, ptr, i32, i64, i32, ptr, %struct.digestdata, %struct.digestdata, %struct.auth, %struct.auth, %struct.Curl_async, ptr, i8, %struct.curltime, %struct.Curl_tree, %struct.Curl_llist, [15 x %struct.time_node], ptr, ptr, i64, i64, i64, i64, [32 x i8], i64, ptr, ptr, ptr, %struct.urlpieces, ptr, ptr, ptr, ptr, ptr, i64, %struct.dynbuf, %struct.Curl_llist, [2 x %struct.curl_header], ptr, i32, ptr, ptr, %struct.store_netrc, %struct.dynamically_allocated_data, i8, i8, i8, i8, i32 }
%struct.digestdata = type { ptr, ptr, ptr, ptr, ptr, ptr, i32, i8, i8 }
%struct.auth = type { i64, i64, i64, i8 }
%struct.Curl_async = type { ptr, ptr, ptr, ptr, i32, i32, i8 }
%struct.Curl_tree = type { ptr, ptr, ptr, ptr, %struct.curltime, ptr }
%struct.time_node = type { %struct.Curl_llist_node, %struct.curltime, i32 }
%struct.urlpieces = type { ptr, ptr, ptr, ptr, ptr, ptr, ptr, ptr }
%struct.dynbuf = type { ptr, i64, i64, i64 }
%struct.Curl_llist = type { ptr, ptr, ptr, i64 }
%struct.curl_header = type { ptr, ptr, i64, i64, i32, ptr }
%struct.store_netrc = type { %struct.dynbuf, ptr, i8 }
%struct.dynamically_allocated_data = type { ptr, ptr, ptr, ptr, ptr, ptr, ptr, ptr, ptr, ptr, ptr, ptr, ptr, ptr }
%struct.PureInfo = type { i32, i32, i32, i64, i64, i64, i64, i64, i64, i64, ptr, ptr, i64, i32, %struct.ip_quadruple, i32, ptr, i32, %struct.curl_certinfo, i32, i8 }
%struct.ip_quadruple = type { [46 x i8], [46 x i8], i32, i32 }
%struct.curl_certinfo = type { i32, ptr }
%struct.curl_tlssessioninfo = type { i32, ptr }
%struct.connectdata = type { %struct.Curl_llist_node, ptr, ptr, i64, ptr, i64, ptr, ptr, %struct.hostname, ptr, ptr, %struct.hostname, %struct.proxy_info, %struct.proxy_info, %struct.ip_quadruple, %struct.ip_quadruple, ptr, ptr, ptr, ptr, ptr, %struct.curltime, %struct.curltime, %struct.curltime, [2 x i32], [2 x ptr], [2 x ptr], [2 x ptr], %struct.anon, %struct.easy_pollset, %struct.ssl_primary_config, %struct.ssl_primary_config, %struct.ConnectBits, ptr, ptr, %struct.curltime, i32, i32, %struct.Curl_llist, i32, i32, %struct.ntlmdata, %struct.ntlmdata, %union.anon.1, ptr, ptr, i16, i32, i32, i32, i32, i16, i16, i8, i8, i8, i8, i8, i8, i8 }
%struct.hostname = type { ptr, ptr, ptr, ptr }
%struct.proxy_info = type { %struct.hostname, i32, i8, ptr, ptr }
%struct.anon = type { [2 x %struct.curltime], i32 }
%struct.ConnectBits = type { i64 }
%struct.ntlmdata = type { i32, [8 x i8], i32, ptr }
%union.anon.1 = type { %struct.ftp_conn }
%struct.ftp_conn = type { %struct.pingpong, ptr, ptr, ptr, ptr, ptr, ptr, ptr, i8, i64, ptr, i64, i32, i32, i32, i32, i32, i16, i8, i8, i8, i8, i8 }
%struct.pingpong = type { i64, i8, ptr, i64, i64, %struct.curltime, i64, %struct.dynbuf, %struct.dynbuf, i64, i64, ptr, ptr }
%struct.smb_conn = type { i32, ptr, ptr, ptr, [8 x i8], i32, i16, ptr, ptr, i64, i64, i64, i64 }

@Curl_cstrdup = external global ptr, align 8
@Curl_cmalloc = external global ptr, align 8

; Function Attrs: nounwind uwtable
define internal i32 @smb_connect(ptr noundef %0, ptr noundef %1) #0 {
  %3 = alloca i32, align 4
  %4 = alloca ptr, align 8
  %5 = alloca ptr, align 8
  %6 = alloca ptr, align 8
  %7 = alloca ptr, align 8
  %8 = alloca ptr, align 8
  %9 = alloca i32, align 4
  store ptr %0, ptr %4, align 8, !tbaa !3
  store ptr %1, ptr %5, align 8, !tbaa !14
  call void @llvm.lifetime.start.p0(i64 8, ptr %6) #8
  %10 = load ptr, ptr %4, align 8, !tbaa !3
  %11 = getelementptr inbounds nuw %struct.Curl_easy, ptr %10, i32 0, i32 3
  %12 = load ptr, ptr %11, align 8, !tbaa !16
  store ptr %12, ptr %6, align 8, !tbaa !8
  call void @llvm.lifetime.start.p0(i64 8, ptr %7) #8
  %13 = load ptr, ptr %6, align 8, !tbaa !8
  %14 = getelementptr inbounds nuw %struct.connectdata, ptr %13, i32 0, i32 43
  store ptr %14, ptr %7, align 8, !tbaa !84
  call void @llvm.lifetime.start.p0(i64 8, ptr %8) #8
  %15 = load ptr, ptr %4, align 8, !tbaa !3
  %16 = getelementptr inbounds nuw %struct.Curl_easy, ptr %15, i32 0, i32 21
  %17 = getelementptr inbounds nuw %struct.UrlState, ptr %16, i32 0, i32 52
  %18 = getelementptr inbounds nuw %struct.dynamically_allocated_data, ptr %17, i32 0, i32 9
  %19 = load ptr, ptr %18, align 8, !tbaa !90
  %20 = icmp ne ptr %19, null
  br i1 %20, label %22, label %21

21:                                               ; preds = %2
  store i32 67, ptr %3, align 4
  store i32 1, ptr %9, align 4
  br label %110

22:                                               ; preds = %2
  %23 = load ptr, ptr %7, align 8, !tbaa !84
  %24 = getelementptr inbounds nuw %struct.smb_conn, ptr %23, i32 0, i32 0
  store i32 1, ptr %24, align 8, !tbaa !91
  %25 = load ptr, ptr @Curl_cmalloc, align 8, !tbaa !10
  %26 = call ptr %25(i64 noundef 36864)
  %27 = load ptr, ptr %7, align 8, !tbaa !84
  %28 = getelementptr inbounds nuw %struct.smb_conn, ptr %27, i32 0, i32 7
  store ptr %26, ptr %28, align 8, !tbaa !92
  %29 = load ptr, ptr %7, align 8, !tbaa !84
  %30 = getelementptr inbounds nuw %struct.smb_conn, ptr %29, i32 0, i32 7
  %31 = load ptr, ptr %30, align 8, !tbaa !92
  %32 = icmp ne ptr %31, null
  br i1 %32, label %34, label %33

33:                                               ; preds = %22
  store i32 27, ptr %3, align 4
  store i32 1, ptr %9, align 4
  br label %110

34:                                               ; preds = %22
  %35 = load ptr, ptr @Curl_cmalloc, align 8, !tbaa !10
  %36 = call ptr %35(i64 noundef 36864)
  %37 = load ptr, ptr %7, align 8, !tbaa !84
  %38 = getelementptr inbounds nuw %struct.smb_conn, ptr %37, i32 0, i32 8
  store ptr %36, ptr %38, align 8, !tbaa !93
  %39 = load ptr, ptr %7, align 8, !tbaa !84
  %40 = getelementptr inbounds nuw %struct.smb_conn, ptr %39, i32 0, i32 8
  %41 = load ptr, ptr %40, align 8, !tbaa !93
  %42 = icmp ne ptr %41, null
  br i1 %42, label %44, label %43

43:                                               ; preds = %34
  store i32 27, ptr %3, align 4
  store i32 1, ptr %9, align 4
  br label %110

44:                                               ; preds = %34
  %45 = load ptr, ptr %6, align 8, !tbaa !8
  call void @Curl_conncontrol(ptr noundef %45, i32 noundef 0)
  %46 = load ptr, ptr %6, align 8, !tbaa !8
  %47 = getelementptr inbounds nuw %struct.connectdata, ptr %46, i32 0, i32 16
  %48 = load ptr, ptr %47, align 8, !tbaa !94
  %49 = call ptr @strchr(ptr noundef %48, i32 noundef 47) #9
  store ptr %49, ptr %8, align 8, !tbaa !103
  %50 = load ptr, ptr %8, align 8, !tbaa !103
  %51 = icmp ne ptr %50, null
  br i1 %51, label %57, label %52

52:                                               ; preds = %44
  %53 = load ptr, ptr %6, align 8, !tbaa !8
  %54 = getelementptr inbounds nuw %struct.connectdata, ptr %53, i32 0, i32 16
  %55 = load ptr, ptr %54, align 8, !tbaa !94
  %56 = call ptr @strchr(ptr noundef %55, i32 noundef 92) #9
  store ptr %56, ptr %8, align 8, !tbaa !103
  br label %57

57:                                               ; preds = %52, %44
  %58 = load ptr, ptr %8, align 8, !tbaa !103
  %59 = icmp ne ptr %58, null
  br i1 %59, label %60, label %89

60:                                               ; preds = %57
  %61 = load ptr, ptr %8, align 8, !tbaa !103
  %62 = getelementptr inbounds i8, ptr %61, i64 1
  %63 = load ptr, ptr %7, align 8, !tbaa !84
  %64 = getelementptr inbounds nuw %struct.smb_conn, ptr %63, i32 0, i32 1
  store ptr %62, ptr %64, align 8, !tbaa !104
  %65 = load ptr, ptr @Curl_cstrdup, align 8, !tbaa !10
  %66 = load ptr, ptr %6, align 8, !tbaa !8
  %67 = getelementptr inbounds nuw %struct.connectdata, ptr %66, i32 0, i32 16
  %68 = load ptr, ptr %67, align 8, !tbaa !94
  %69 = call ptr %65(ptr noundef %68)
  %70 = load ptr, ptr %7, align 8, !tbaa !84
  %71 = getelementptr inbounds nuw %struct.smb_conn, ptr %70, i32 0, i32 2
  store ptr %69, ptr %71, align 8, !tbaa !105
  %72 = load ptr, ptr %7, align 8, !tbaa !84
  %73 = getelementptr inbounds nuw %struct.smb_conn, ptr %72, i32 0, i32 2
  %74 = load ptr, ptr %73, align 8, !tbaa !105
  %75 = icmp ne ptr %74, null
  br i1 %75, label %77, label %76

76:                                               ; preds = %60
  store i32 27, ptr %3, align 4
  store i32 1, ptr %9, align 4
  br label %110

77:                                               ; preds = %60
  %78 = load ptr, ptr %7, align 8, !tbaa !84
  %79 = getelementptr inbounds nuw %struct.smb_conn, ptr %78, i32 0, i32 2
  %80 = load ptr, ptr %79, align 8, !tbaa !105
  %81 = load ptr, ptr %8, align 8, !tbaa !103
  %82 = load ptr, ptr %6, align 8, !tbaa !8
  %83 = getelementptr inbounds nuw %struct.connectdata, ptr %82, i32 0, i32 16
  %84 = load ptr, ptr %83, align 8, !tbaa !94
  %85 = ptrtoint ptr %81 to i64
  %86 = ptrtoint ptr %84 to i64
  %87 = sub i64 %85, %86
  %88 = getelementptr inbounds i8, ptr %80, i64 %87
  store i8 0, ptr %88, align 1, !tbaa !13
  br label %109

89:                                               ; preds = %57
  %90 = load ptr, ptr %6, align 8, !tbaa !8
  %91 = getelementptr inbounds nuw %struct.connectdata, ptr %90, i32 0, i32 16
  %92 = load ptr, ptr %91, align 8, !tbaa !94
  %93 = load ptr, ptr %7, align 8, !tbaa !84
  %94 = getelementptr inbounds nuw %struct.smb_conn, ptr %93, i32 0, i32 1
  store ptr %92, ptr %94, align 8, !tbaa !104
  %95 = load ptr, ptr @Curl_cstrdup, align 8, !tbaa !10
  %96 = load ptr, ptr %6, align 8, !tbaa !8
  %97 = getelementptr inbounds nuw %struct.connectdata, ptr %96, i32 0, i32 8
  %98 = getelementptr inbounds nuw %struct.hostname, ptr %97, i32 0, i32 2
  %99 = load ptr, ptr %98, align 8, !tbaa !106
  %100 = call ptr %95(ptr noundef %99)
  %101 = load ptr, ptr %7, align 8, !tbaa !84
  %102 = getelementptr inbounds nuw %struct.smb_conn, ptr %101, i32 0, i32 2
  store ptr %100, ptr %102, align 8, !tbaa !105
  %103 = load ptr, ptr %7, align 8, !tbaa !84
  %104 = getelementptr inbounds nuw %struct.smb_conn, ptr %103, i32 0, i32 2
  %105 = load ptr, ptr %104, align 8, !tbaa !105
  %106 = icmp ne ptr %105, null
  br i1 %106, label %108, label %107

107:                                              ; preds = %89
  store i32 27, ptr %3, align 4
  store i32 1, ptr %9, align 4
  br label %110

108:                                              ; preds = %89
  br label %109

109:                                              ; preds = %108, %77
  store i32 0, ptr %3, align 4
  store i32 1, ptr %9, align 4
  br label %110

110:                                              ; preds = %109, %107, %76, %43, %33, %21
  call void @llvm.lifetime.end.p0(i64 8, ptr %8) #8
  call void @llvm.lifetime.end.p0(i64 8, ptr %7) #8
  call void @llvm.lifetime.end.p0(i64 8, ptr %6) #8
  %111 = load i32, ptr %3, align 4
  ret i32 %111
}