; Function Attrs: nounwind uwtable
define internal range(i32 0, 68) i32 @smb_connect(ptr noundef readonly captures(none) %0, ptr readnone captures(none) %1) #0 {
  %3 = getelementptr inbounds nuw i8, ptr %0, i64 24
  %4 = load ptr, ptr %3, align 8, !tbaa !84
  %5 = getelementptr inbounds nuw i8, ptr %0, i64 4992
  %6 = load ptr, ptr %5, align 8, !tbaa !87
  %.not = icmp eq ptr %6, null
  br i1 %.not, label %41, label %7

7:                                                ; preds = %2
  %8 = getelementptr inbounds nuw i8, ptr %4, i64 1088
  store i32 1, ptr %8, align 8, !tbaa !88
  %9 = load ptr, ptr @Curl_cmalloc, align 8, !tbaa !3
  %10 = tail call ptr %9(i64 noundef 36864) #11
  %11 = getelementptr inbounds nuw i8, ptr %4, i64 1136
  store ptr %10, ptr %11, align 8, !tbaa !89
  %.not29 = icmp eq ptr %10, null
  br i1 %.not29, label %41, label %12

12:                                               ; preds = %7
  %13 = load ptr, ptr @Curl_cmalloc, align 8, !tbaa !3
  %14 = tail call ptr %13(i64 noundef 36864) #11
  %15 = getelementptr inbounds nuw i8, ptr %4, i64 1144
  store ptr %14, ptr %15, align 8, !tbaa !90
  %.not30 = icmp eq ptr %14, null
  br i1 %.not30, label %41, label %16

16:                                               ; preds = %12
  tail call void @Curl_conncontrol(ptr noundef nonnull %4, i32 noundef 0) #11
  %17 = getelementptr inbounds nuw i8, ptr %4, i64 480
  %18 = load ptr, ptr %17, align 8, !tbaa !91
  %19 = tail call ptr @strchr(ptr noundef nonnull dereferenceable(1) %18, i32 noundef 47) #12
  %.not31 = icmp eq ptr %19, null
  br i1 %.not31, label %20, label %.thread

20:                                               ; preds = %16
  %21 = tail call ptr @strchr(ptr noundef nonnull dereferenceable(1) %18, i32 noundef 92) #12
  %.not32 = icmp eq ptr %21, null
  br i1 %.not32, label %33, label %.thread

.thread:                                          ; preds = %16, %20
  %.037 = phi ptr [ %21, %20 ], [ %19, %16 ]
  %22 = getelementptr inbounds nuw i8, ptr %.037, i64 1
  %23 = getelementptr inbounds nuw i8, ptr %4, i64 1096
  store ptr %22, ptr %23, align 8, !tbaa !100
  %24 = load ptr, ptr @Curl_cstrdup, align 8, !tbaa !3
  %25 = tail call ptr %24(ptr noundef nonnull %18) #11
  %26 = getelementptr inbounds nuw i8, ptr %4, i64 1104
  store ptr %25, ptr %26, align 8, !tbaa !101
  %.not34 = icmp eq ptr %25, null
  br i1 %.not34, label %41, label %27

27:                                               ; preds = %.thread
  %28 = load ptr, ptr %17, align 8, !tbaa !91
  %29 = ptrtoint ptr %.037 to i64
  %30 = ptrtoint ptr %28 to i64
  %31 = sub i64 %29, %30
  %32 = getelementptr inbounds i8, ptr %25, i64 %31
  store i8 0, ptr %32, align 1, !tbaa !7
  br label %40

33:                                               ; preds = %20
  %34 = getelementptr inbounds nuw i8, ptr %4, i64 1096
  store ptr %18, ptr %34, align 8, !tbaa !100
  %35 = load ptr, ptr @Curl_cstrdup, align 8, !tbaa !3
  %36 = getelementptr inbounds nuw i8, ptr %4, i64 104
  %37 = load ptr, ptr %36, align 8, !tbaa !102
  %38 = tail call ptr %35(ptr noundef %37) #11
  %39 = getelementptr inbounds nuw i8, ptr %4, i64 1104
  store ptr %38, ptr %39, align 8, !tbaa !101
  %.not33 = icmp eq ptr %38, null
  br i1 %.not33, label %41, label %40

40:                                               ; preds = %33, %27
  br label %41

41:                                               ; preds = %33, %.thread, %12, %7, %2, %40
  %.026 = phi i32 [ 0, %40 ], [ 67, %2 ], [ 27, %7 ], [ 27, %12 ], [ 27, %.thread ], [ 27, %33 ]
  ret i32 %.026
}